target datalayout = "e-m:e-p270:32:32-p271:32:32-p272:64:64-i64:64-i128:128-f80:128-n8:16:32:64-S128"
target triple = "x86_64-pc-linux-gnu"

%struct._wmem_allocator_t = type { ptr, ptr, ptr, ptr, ptr, ptr, ptr, ptr, i32, i8 }
%struct._wmem_simple_allocator_t = type { i32, i32, ptr }

@.str = private unnamed_addr constant [36 x i8] c"wsutil/wmem/wmem_allocator_simple.c\00", align 1
@__func__.wmem_simple_realloc = private unnamed_addr constant [20 x i8] c"wmem_simple_realloc\00", align 1
@__func__.wmem_simple_free = private unnamed_addr constant [17 x i8] c"wmem_simple_free\00", align 1

; Function Attrs: null_pointer_is_valid sspstrong uwtable
define hidden void @wmem_simple_allocator_init(ptr noundef %0) #0 {
  %2 = alloca ptr, align 8
  %3 = alloca ptr, align 8
  store ptr %0, ptr %2, align 8
  call void @llvm.lifetime.start.p0(i64 8, ptr %3) #8
  %4 = call noalias ptr @wmem_alloc(ptr noundef null, i64 noundef 16) #9
  store ptr %4, ptr %3, align 8
  %5 = load ptr, ptr %2, align 8
  %6 = getelementptr inbounds nuw %struct._wmem_allocator_t, ptr %5, i32 0, i32 0
  store ptr @wmem_simple_alloc, ptr %6, align 8
  %7 = load ptr, ptr %2, align 8
  %8 = getelementptr inbounds nuw %struct._wmem_allocator_t, ptr %7, i32 0, i32 2
  store ptr @wmem_simple_realloc, ptr %8, align 8
  %9 = load ptr, ptr %2, align 8
  %10 = getelementptr inbounds nuw %struct._wmem_allocator_t, ptr %9, i32 0, i32 1
  store ptr @wmem_simple_free, ptr %10, align 8
  %11 = load ptr, ptr %2, align 8
  %12 = getelementptr inbounds nuw %struct._wmem_allocator_t, ptr %11, i32 0, i32 3
  store ptr @wmem_simple_free_all, ptr %12, align 8
  %13 = load ptr, ptr %2, align 8
  %14 = getelementptr inbounds nuw %struct._wmem_allocator_t, ptr %13, i32 0, i32 4
  store ptr @wmem_simple_gc, ptr %14, align 8
  %15 = load ptr, ptr %2, align 8
  %16 = getelementptr inbounds nuw %struct._wmem_allocator_t, ptr %15, i32 0, i32 5
  store ptr @wmem_simple_allocator_cleanup, ptr %16, align 8
  %17 = load ptr, ptr %3, align 8
  %18 = load ptr, ptr %2, align 8
  %19 = getelementptr inbounds nuw %struct._wmem_allocator_t, ptr %18, i32 0, i32 7
  store ptr %17, ptr %19, align 8
  %20 = load ptr, ptr %3, align 8
  %21 = getelementptr inbounds nuw %struct._wmem_simple_allocator_t, ptr %20, i32 0, i32 1
  store i32 0, ptr %21, align 4
  %22 = load ptr, ptr %3, align 8
  %23 = getelementptr inbounds nuw %struct._wmem_simple_allocator_t, ptr %22, i32 0, i32 0
  store i32 8192, ptr %23, align 8
  %24 = call noalias ptr @wmem_alloc(ptr noundef null, i64 noundef 65536) #9
  %25 = load ptr, ptr %3, align 8
  %26 = getelementptr inbounds nuw %struct._wmem_simple_allocator_t, ptr %25, i32 0, i32 2
  store ptr %24, ptr %26, align 8
  call void @llvm.lifetime.end.p0(i64 8, ptr %3) #8
  ret void
}

; Function Attrs: nocallback nofree nosync nounwind willreturn memory(argmem: readwrite)
declare void @llvm.lifetime.start.p0(i64 immarg, ptr captures(none)) #1

; Function Attrs: null_pointer_is_valid allocsize(1)
declare noalias ptr @wmem_alloc(ptr noundef, i64 noundef) #2

; Function Attrs: null_pointer_is_valid sspstrong uwtable
define internal ptr @wmem_simple_alloc(ptr noundef %0, i64 noundef %1) #0 {
  %3 = alloca ptr, align 8
  %4 = alloca i64, align 8
  %5 = alloca ptr, align 8
  %6 = alloca i32, align 4
  %7 = alloca i32, align 4
  store ptr %0, ptr %3, align 8
  store i64 %1, ptr %4, align 8
  call void @llvm.lifetime.start.p0(i64 8, ptr %5) #8
  %8 = load ptr, ptr %3, align 8
  store ptr %8, ptr %5, align 8
  call void @llvm.lifetime.start.p0(i64 4, ptr %6) #8
  %9 = load ptr, ptr %5, align 8
  %10 = getelementptr inbounds nuw %struct._wmem_simple_allocator_t, ptr %9, i32 0, i32 1
  %11 = load i32, ptr %10, align 4
  %12 = load ptr, ptr %5, align 8
  %13 = getelementptr inbounds nuw %struct._wmem_simple_allocator_t, ptr %12, i32 0, i32 0
  %14 = load i32, ptr %13, align 8
  %15 = icmp eq i32 %11, %14
  br i1 %15, label %16, label %17

16:                                               ; preds = %2
  store i32 1, ptr %6, align 4
  br label %18

17:                                               ; preds = %2
  store i32 0, ptr %6, align 4
  br label %18

18:                                               ; preds = %17, %16
  %19 = load i32, ptr %6, align 4
  store i32 %19, ptr %7, align 4
  call void @llvm.lifetime.end.p0(i64 4, ptr %6) #8
  %20 = load i32, ptr %7, align 4
  %21 = sext i32 %20 to i64
  %22 = call i64 @llvm.expect.i64(i64 %21, i64 0)
  %23 = icmp ne i64 %22, 0
  br i1 %23, label %24, label %40

24:                                               ; preds = %18
  %25 = load ptr, ptr %5, align 8
  %26 = getelementptr inbounds nuw %struct._wmem_simple_allocator_t, ptr %25, i32 0, i32 0
  %27 = load i32, ptr %26, align 8
  %28 = mul i32 %27, 2
  store i32 %28, ptr %26, align 8
  %29 = load ptr, ptr %5, align 8
  %30 = getelementptr inbounds nuw %struct._wmem_simple_allocator_t, ptr %29, i32 0, i32 2
  %31 = load ptr, ptr %30, align 8
  %32 = load ptr, ptr %5, align 8
  %33 = getelementptr inbounds nuw %struct._wmem_simple_allocator_t, ptr %32, i32 0, i32 0
  %34 = load i32, ptr %33, align 8
  %35 = sext i32 %34 to i64
  %36 = mul i64 8, %35
  %37 = call ptr @wmem_realloc(ptr noundef null, ptr noundef %31, i64 noundef %36) #10
  %38 = load ptr, ptr %5, align 8
  %39 = getelementptr inbounds nuw %struct._wmem_simple_allocator_t, ptr %38, i32 0, i32 2
  store ptr %37, ptr %39, align 8
  br label %40

40:                                               ; preds = %24, %18
  %41 = load i64, ptr %4, align 8
  %42 = call noalias ptr @wmem_alloc(ptr noundef null, i64 noundef %41) #9
  %43 = load ptr, ptr %5, align 8
  %44 = getelementptr inbounds nuw %struct._wmem_simple_allocator_t, ptr %43, i32 0, i32 2
  %45 = load ptr, ptr %44, align 8
  %46 = load ptr, ptr %5, align 8
  %47 = getelementptr inbounds nuw %struct._wmem_simple_allocator_t, ptr %46, i32 0, i32 1
  %48 = load i32, ptr %47, align 4
  %49 = add i32 %48, 1
  store i32 %49, ptr %47, align 4
  %50 = sext i32 %48 to i64
  %51 = getelementptr ptr, ptr %45, i64 %50
  store ptr %42, ptr %51, align 8
  call void @llvm.lifetime.end.p0(i64 8, ptr %5) #8
  ret ptr %42
}

; Function Attrs: null_pointer_is_valid sspstrong uwtable
define internal ptr @wmem_simple_realloc(ptr noundef %0, ptr noundef %1, i64 noundef %2) #0 {
  %4 = alloca ptr, align 8
  %5 = alloca ptr, align 8
  %6 = alloca ptr, align 8
  %7 = alloca i64, align 8
  %8 = alloca i32, align 4
  %9 = alloca ptr, align 8
  %10 = alloca i32, align 4
  store ptr %0, ptr %5, align 8
  store ptr %1, ptr %6, align 8
  store i64 %2, ptr %7, align 8
  call void @llvm.lifetime.start.p0(i64 4, ptr %8) #8
  call void @llvm.lifetime.start.p0(i64 8, ptr %9) #8
  %11 = load ptr, ptr %5, align 8
  store ptr %11, ptr %9, align 8
  %12 = load ptr, ptr %9, align 8
  %13 = getelementptr inbounds nuw %struct._wmem_simple_allocator_t, ptr %12, i32 0, i32 1
  %14 = load i32, ptr %13, align 4
  %15 = sub i32 %14, 1
  store i32 %15, ptr %8, align 4
  br label %16

16:                                               ; preds = %46, %3
  %17 = load i32, ptr %8, align 4
  %18 = icmp sge i32 %17, 0
  br i1 %18, label %19, label %49

19:                                               ; preds = %16
  %20 = load ptr, ptr %6, align 8
  %21 = load ptr, ptr %9, align 8
  %22 = getelementptr inbounds nuw %struct._wmem_simple_allocator_t, ptr %21, i32 0, i32 2
  %23 = load ptr, ptr %22, align 8
  %24 = load i32, ptr %8, align 4
  %25 = sext i32 %24 to i64
  %26 = getelementptr ptr, ptr %23, i64 %25
  %27 = load ptr, ptr %26, align 8
  %28 = icmp eq ptr %20, %27
  br i1 %28, label %29, label %45

29:                                               ; preds = %19
  %30 = load ptr, ptr %9, align 8
  %31 = getelementptr inbounds nuw %struct._wmem_simple_allocator_t, ptr %30, i32 0, i32 2
  %32 = load ptr, ptr %31, align 8
  %33 = load i32, ptr %8, align 4
  %34 = sext i32 %33 to i64
  %35 = getelementptr ptr, ptr %32, i64 %34
  %36 = load ptr, ptr %35, align 8
  %37 = load i64, ptr %7, align 8
  %38 = call ptr @wmem_realloc(ptr noundef null, ptr noundef %36, i64 noundef %37) #10
  %39 = load ptr, ptr %9, align 8
  %40 = getelementptr inbounds nuw %struct._wmem_simple_allocator_t, ptr %39, i32 0, i32 2
  %41 = load ptr, ptr %40, align 8
  %42 = load i32, ptr %8, align 4
  %43 = sext i32 %42 to i64
  %44 = getelementptr ptr, ptr %41, i64 %43
  store ptr %38, ptr %44, align 8
  store ptr %38, ptr %4, align 8
  store i32 1, ptr %10, align 4
  br label %53

45:                                               ; preds = %19
  br label %46

46:                                               ; preds = %45
  %47 = load i32, ptr %8, align 4
  %48 = add i32 %47, -1
  store i32 %48, ptr %8, align 4
  br label %16, !llvm.loop !6

49:                                               ; preds = %16
  br label %50

50:                                               ; preds = %49
  call void @g_assertion_message_expr(ptr noundef null, ptr noundef @.str, i32 noundef 83, ptr noundef @__func__.wmem_simple_realloc, ptr noundef null) #11
  unreachable

51:                                               ; No predecessors!
  br label %52

52:                                               ; preds = %51
  store ptr null, ptr %4, align 8
  store i32 1, ptr %10, align 4
  br label %53

53:                                               ; preds = %52, %29
  call void @llvm.lifetime.end.p0(i64 8, ptr %9) #8
  call void @llvm.lifetime.end.p0(i64 4, ptr %8) #8
  %54 = load ptr, ptr %4, align 8
  ret ptr %54
}

; Function Attrs: null_pointer_is_valid sspstrong uwtable
define internal void @wmem_simple_free(ptr noundef %0, ptr noundef %1) #0 {
  %3 = alloca ptr, align 8
  %4 = alloca ptr, align 8
  %5 = alloca i32, align 4
  %6 = alloca ptr, align 8
  %7 = alloca i32, align 4
  store ptr %0, ptr %3, align 8
  store ptr %1, ptr %4, align 8
  call void @llvm.lifetime.start.p0(i64 4, ptr %5) #8
  call void @llvm.lifetime.start.p0(i64 8, ptr %6) #8
  %8 = load ptr, ptr %3, align 8
  store ptr %8, ptr %6, align 8
  %9 = load ptr, ptr %4, align 8
  call void @wmem_free(ptr noundef null, ptr noundef %9)
  %10 = load ptr, ptr %6, align 8
  %11 = getelementptr inbounds nuw %struct._wmem_simple_allocator_t, ptr %10, i32 0, i32 1
  %12 = load i32, ptr %11, align 4
  %13 = add i32 %12, -1
  store i32 %13, ptr %11, align 4
  %14 = load ptr, ptr %6, align 8
  %15 = getelementptr inbounds nuw %struct._wmem_simple_allocator_t, ptr %14, i32 0, i32 1
  %16 = load i32, ptr %15, align 4
  store i32 %16, ptr %5, align 4
  br label %17

17:                                               ; preds = %54, %2
  %18 = load i32, ptr %5, align 4
  %19 = icmp sge i32 %18, 0
  br i1 %19, label %20, label %57

20:                                               ; preds = %17
  %21 = load ptr, ptr %4, align 8
  %22 = load ptr, ptr %6, align 8
  %23 = getelementptr inbounds nuw %struct._wmem_simple_allocator_t, ptr %22, i32 0, i32 2
  %24 = load ptr, ptr %23, align 8
  %25 = load i32, ptr %5, align 4
  %26 = sext i32 %25 to i64
  %27 = getelementptr ptr, ptr %24, i64 %26
  %28 = load ptr, ptr %27, align 8
  %29 = icmp eq ptr %21, %28
  br i1 %29, label %30, label %53

30:                                               ; preds = %20
  %31 = load i32, ptr %5, align 4
  %32 = load ptr, ptr %6, align 8
  %33 = getelementptr inbounds nuw %struct._wmem_simple_allocator_t, ptr %32, i32 0, i32 1
  %34 = load i32, ptr %33, align 4
  %35 = icmp slt i32 %31, %34
  br i1 %35, label %36, label %52

36:                                               ; preds = %30
  %37 = load ptr, ptr %6, align 8
  %38 = getelementptr inbounds nuw %struct._wmem_simple_allocator_t, ptr %37, i32 0, i32 2
  %39 = load ptr, ptr %38, align 8
  %40 = load ptr, ptr %6, align 8
  %41 = getelementptr inbounds nuw %struct._wmem_simple_allocator_t, ptr %40, i32 0, i32 1
  %42 = load i32, ptr %41, align 4
  %43 = sext i32 %42 to i64
  %44 = getelementptr ptr, ptr %39, i64 %43
  %45 = load ptr, ptr %44, align 8
  %46 = load ptr, ptr %6, align 8
  %47 = getelementptr inbounds nuw %struct._wmem_simple_allocator_t, ptr %46, i32 0, i32 2
  %48 = load ptr, ptr %47, align 8
  %49 = load i32, ptr %5, align 4
  %50 = sext i32 %49 to i64
  %51 = getelementptr ptr, ptr %48, i64 %50
  store ptr %45, ptr %51, align 8
  br label %52

52:                                               ; preds = %36, %30
  store i32 1, ptr %7, align 4
  br label %61

53:                                               ; preds = %20
  br label %54

54:                                               ; preds = %53
  %55 = load i32, ptr %5, align 4
  %56 = add i32 %55, -1
  store i32 %56, ptr %5, align 4
  br label %17, !llvm.loop !8

57:                                               ; preds = %17
  br label %58

58:                                               ; preds = %57
  call void @g_assertion_message_expr(ptr noundef null, ptr noundef @.str, i32 noundef 66, ptr noundef @__func__.wmem_simple_free, ptr noundef null) #11
  unreachable

59:                                               ; No predecessors!
  br label %60

60:                                               ; preds = %59
  store i32 0, ptr %7, align 4
  br label %61

61:                                               ; preds = %60, %52
  call void @llvm.lifetime.end.p0(i64 8, ptr %6) #8
  call void @llvm.lifetime.end.p0(i64 4, ptr %5) #8
  %62 = load i32, ptr %7, align 4
  switch i32 %62, label %64 [
    i32 0, label %63
    i32 1, label %63
  ]

63:                                               ; preds = %61, %61
  ret void

64:                                               ; preds = %61
  unreachable
}

; Function Attrs: null_pointer_is_valid sspstrong uwtable
define internal void @wmem_simple_free_all(ptr noundef %0) #0 {
  %2 = alloca ptr, align 8
  %3 = alloca ptr, align 8
  %4 = alloca i32, align 4
  store ptr %0, ptr %2, align 8
  call void @llvm.lifetime.start.p0(i64 8, ptr %3) #8
  call void @llvm.lifetime.start.p0(i64 4, ptr %4) #8
  %5 = load ptr, ptr %2, align 8
  store ptr %5, ptr %3, align 8
  store i32 0, ptr %4, align 4
  br label %6

6:                                                ; preds = %20, %1
  %7 = load i32, ptr %4, align 4
  %8 = load ptr, ptr %3, align 8
  %9 = getelementptr inbounds nuw %struct._wmem_simple_allocator_t, ptr %8, i32 0, i32 1
  %10 = load i32, ptr %9, align 4
  %11 = icmp slt i32 %7, %10
  br i1 %11, label %12, label %23

12:                                               ; preds = %6
  %13 = load ptr, ptr %3, align 8
  %14 = getelementptr inbounds nuw %struct._wmem_simple_allocator_t, ptr %13, i32 0, i32 2
  %15 = load ptr, ptr %14, align 8
  %16 = load i32, ptr %4, align 4
  %17 = sext i32 %16 to i64
  %18 = getelementptr ptr, ptr %15, i64 %17
  %19 = load ptr, ptr %18, align 8
  call void @wmem_free(ptr noundef null, ptr noundef %19)
  br label %20

20:                                               ; preds = %12
  %21 = load i32, ptr %4, align 4
  %22 = add i32 %21, 1
  store i32 %22, ptr %4, align 4
  br label %6, !llvm.loop !9

23:                                               ; preds = %6
  %24 = load ptr, ptr %3, align 8
  %25 = getelementptr inbounds nuw %struct._wmem_simple_allocator_t, ptr %24, i32 0, i32 1
  store i32 0, ptr %25, align 4
  call void @llvm.lifetime.end.p0(i64 4, ptr %4) #8
  call void @llvm.lifetime.end.p0(i64 8, ptr %3) #8
  ret void
}

; Function Attrs: nounwind null_pointer_is_valid sspstrong uwtable
define internal void @wmem_simple_gc(ptr noundef %0) #3 {
  %2 = alloca ptr, align 8
  store ptr %0, ptr %2, align 8
  ret void
}

; Function Attrs: null_pointer_is_valid sspstrong uwtable
define internal void @wmem_simple_allocator_cleanup(ptr noundef %0) #0 {
  %2 = alloca ptr, align 8
  %3 = alloca ptr, align 8
  store ptr %0, ptr %2, align 8
  call void @llvm.lifetime.start.p0(i64 8, ptr %3) #8
  %4 = load ptr, ptr %2, align 8
  store ptr %4, ptr %3, align 8
  %5 = load ptr, ptr %3, align 8
  %6 = getelementptr inbounds nuw %struct._wmem_simple_allocator_t, ptr %5, i32 0, i32 2
  %7 = load ptr, ptr %6, align 8
  call void @wmem_free(ptr noundef null, ptr noundef %7)
  %8 = load ptr, ptr %3, align 8
  call void @wmem_free(ptr noundef null, ptr noundef %8)
  call void @llvm.lifetime.end.p0(i64 8, ptr %3) #8
  ret void
}

; Function Attrs: nocallback nofree nosync nounwind willreturn memory(argmem: readwrite)
declare void @llvm.lifetime.end.p0(i64 immarg, ptr captures(none)) #1

; Function Attrs: nocallback nofree nosync nounwind willreturn memory(none)
declare i64 @llvm.expect.i64(i64, i64) #4

; Function Attrs: null_pointer_is_valid allocsize(2)
declare ptr @wmem_realloc(ptr noundef, ptr noundef, i64 noundef) #5

; Function Attrs: noreturn null_pointer_is_valid
declare void @g_assertion_message_expr(ptr noundef, ptr noundef, i32 noundef, ptr noundef, ptr noundef) #6

; Function Attrs: null_pointer_is_valid
declare void @wmem_free(ptr noundef, ptr noundef) #7


!llvm.module.flags = !{!0, !1, !2, !3, !4, !5}

!0 = !{i32 1, !"wchar_size", i32 4}
!1 = !{i32 8, !"cf-protection-return", i32 1}
!2 = !{i32 8, !"cf-protection-branch", i32 1}
!3 = !{i32 4, !"probe-stack", !"inline-asm"}
!4 = !{i32 8, !"PIC Level", i32 2}
!5 = !{i32 7, !"uwtable", i32 2}
!6 = distinct !{!6, !7}
!7 = !{!"llvm.loop.mustprogress"}
!8 = distinct !{!8, !7}
!9 = distinct !{!9, !7}
